; Function Attrs: mustprogress uwtable
define void @_ZN2cv6detail15GCompoundKernelC2ERKSt8functionIFvRNS0_16GCompoundContextEEE(ptr noundef nonnull align 8 dereferenceable(32) initializes((0, 32)) %0, ptr noundef nonnull align 8 dereferenceable(32) %1) unnamed_addr #3 align 2 personality ptr @__gxx_personality_v0 {
  %3 = getelementptr inbounds nuw i8, ptr %0, i64 16
  %4 = getelementptr inbounds nuw i8, ptr %0, i64 24
  %5 = getelementptr inbounds nuw i8, ptr %1, i64 16
  tail call void @llvm.memset.p0.i64(ptr noundef nonnull align 8 dereferenceable(32) %0, i8 0, i64 32, i1 false)
  %6 = load ptr, ptr %5, align 8, !tbaa !62
  %.not.i.i.not.i = icmp eq ptr %6, null
  br i1 %.not.i.i.not.i, label %_ZNSt8functionIFvRN2cv6detail16GCompoundContextEEEC2ERKS5_.exit, label %7

7:                                                ; preds = %2
  %8 = invoke noundef zeroext i1 %6(ptr noundef nonnull align 8 dereferenceable(32) %0, ptr noundef nonnull align 8 dereferenceable(32) %1, i32 noundef 2)
          to label %9 unwind label %13

9:                                                ; preds = %7
  %10 = getelementptr inbounds nuw i8, ptr %1, i64 24
  %11 = load ptr, ptr %10, align 8, !tbaa !64
  store ptr %11, ptr %4, align 8, !tbaa !64
  %12 = load ptr, ptr %5, align 8, !tbaa !62
  store ptr %12, ptr %3, align 8, !tbaa !62
  br label %_ZNSt8functionIFvRN2cv6detail16GCompoundContextEEEC2ERKS5_.exit

13:                                               ; preds = %7
  %14 = landingpad { ptr, i32 }
          cleanup
  %15 = load ptr, ptr %3, align 8, !tbaa !62
  %.not.i.i = icmp eq ptr %15, null
  br i1 %.not.i.i, label %_ZNSt14_Function_baseD2Ev.exit.i, label %16

16:                                               ; preds = %13
  %17 = invoke noundef zeroext i1 %15(ptr noundef nonnull align 8 dereferenceable(32) %0, ptr noundef nonnull align 8 dereferenceable(32) %0, i32 noundef 3)
          to label %_ZNSt14_Function_baseD2Ev.exit.i unwind label %18

18:                                               ; preds = %16
  %19 = landingpad { ptr, i32 }
          catch ptr null
  %20 = extractvalue { ptr, i32 } %19, 0
  tail call void @__clang_call_terminate(ptr %20) #25
  unreachable

_ZNSt14_Function_baseD2Ev.exit.i:                 ; preds = %16, %13
  resume { ptr, i32 } %14

_ZNSt8functionIFvRN2cv6detail16GCompoundContextEEEC2ERKS5_.exit: ; preds = %2, %9
  ret void
}